target datalayout = "e-m:e-p270:32:32-p271:32:32-p272:64:64-i64:64-i128:128-f80:128-n8:16:32:64-S128"
target triple = "x86_64-pc-linux-gnu"

; Function Attrs: mustprogress nounwind uwtable
define void @_Z5rtrimPc(ptr noundef %0) #1 {
  %2 = alloca ptr, align 8
  %3 = alloca i32, align 4
  store ptr %0, ptr %2, align 8, !tbaa !4
  %4 = load ptr, ptr %2, align 8, !tbaa !4
  %5 = icmp eq ptr null, %4
  br i1 %5, label %6, label %7

6:                                                ; preds = %1
  br label %43

7:                                                ; preds = %1
  call void @llvm.lifetime.start.p0(i64 4, ptr %3) #13
  %8 = load ptr, ptr %2, align 8, !tbaa !4
  %9 = call i64 @strlen(ptr noundef %8) #14
  %10 = sub i64 %9, 1
  %11 = trunc i64 %10 to i32
  store i32 %11, ptr %3, align 4, !tbaa !9
  br label %12

12:                                               ; preds = %35, %7
  %13 = load i32, ptr %3, align 4, !tbaa !9
  %14 = icmp sge i32 %13, 0
  br i1 %14, label %15, label %33

15:                                               ; preds = %12
  %16 = load ptr, ptr %2, align 8, !tbaa !4
  %17 = load i32, ptr %3, align 4, !tbaa !9
  %18 = sext i32 %17 to i64
  %19 = getelementptr inbounds i8, ptr %16, i64 %18
  %20 = load i8, ptr %19, align 1, !tbaa !11
  %21 = sext i8 %20 to i32
  %22 = icmp eq i32 %21, 32
  br i1 %22, label %31, label %23

23:                                               ; preds = %15
  %24 = load ptr, ptr %2, align 8, !tbaa !4
  %25 = load i32, ptr %3, align 4, !tbaa !9
  %26 = sext i32 %25 to i64
  %27 = getelementptr inbounds i8, ptr %24, i64 %26
  %28 = load i8, ptr %27, align 1, !tbaa !11
  %29 = sext i8 %28 to i32
  %30 = icmp eq i32 %29, 9
  br label %31

31:                                               ; preds = %23, %15
  %32 = phi i1 [ true, %15 ], [ %30, %23 ]
  br label %33

33:                                               ; preds = %31, %12
  %34 = phi i1 [ false, %12 ], [ %32, %31 ]
  br i1 %34, label %35, label %42

35:                                               ; preds = %33
  %36 = load ptr, ptr %2, align 8, !tbaa !4
  %37 = load i32, ptr %3, align 4, !tbaa !9
  %38 = sext i32 %37 to i64
  %39 = getelementptr inbounds i8, ptr %36, i64 %38
  store i8 0, ptr %39, align 1, !tbaa !11
  %40 = load i32, ptr %3, align 4, !tbaa !9
  %41 = add nsw i32 %40, -1
  store i32 %41, ptr %3, align 4, !tbaa !9
  br label %12, !llvm.loop !12

42:                                               ; preds = %33
  call void @llvm.lifetime.end.p0(i64 4, ptr %3) #13
  br label %43

43:                                               ; preds = %42, %6
  ret void
}

; Function Attrs: mustprogress uwtable
define noundef i32 @_Z10continuingPc(ptr noundef %0) #0 {
  %2 = alloca i32, align 4
  %3 = alloca ptr, align 8
  %4 = alloca i32, align 4
  %5 = alloca i32, align 4
  store ptr %0, ptr %3, align 8, !tbaa !4
  %6 = load ptr, ptr %3, align 8, !tbaa !4
  call void @_Z5rtrimPc(ptr noundef %6)
  call void @llvm.lifetime.start.p0(i64 4, ptr %4) #13
  %7 = load ptr, ptr %3, align 8, !tbaa !4
  %8 = call i64 @strlen(ptr noundef %7) #14
  %9 = trunc i64 %8 to i32
  store i32 %9, ptr %4, align 4, !tbaa !9
  %10 = load i32, ptr %4, align 4, !tbaa !9
  %11 = icmp sgt i32 %10, 0
  br i1 %11, label %12, label %27

12:                                               ; preds = %1
  %13 = load ptr, ptr %3, align 8, !tbaa !4
  %14 = load i32, ptr %4, align 4, !tbaa !9
  %15 = sub nsw i32 %14, 1
  %16 = sext i32 %15 to i64
  %17 = getelementptr inbounds i8, ptr %13, i64 %16
  %18 = load i8, ptr %17, align 1, !tbaa !11
  %19 = sext i8 %18 to i32
  %20 = icmp eq i32 %19, 92
  br i1 %20, label %21, label %27

21:                                               ; preds = %12
  %22 = load ptr, ptr %3, align 8, !tbaa !4
  %23 = load i32, ptr %4, align 4, !tbaa !9
  %24 = sub nsw i32 %23, 1
  %25 = sext i32 %24 to i64
  %26 = getelementptr inbounds i8, ptr %22, i64 %25
  store i8 0, ptr %26, align 1, !tbaa !11
  store i32 1, ptr %2, align 4
  store i32 1, ptr %5, align 4
  br label %28

27:                                               ; preds = %12, %1
  store i32 0, ptr %2, align 4
  store i32 1, ptr %5, align 4
  br label %28

28:                                               ; preds = %27, %21
  call void @llvm.lifetime.end.p0(i64 4, ptr %4) #13
  %29 = load i32, ptr %2, align 4
  ret i32 %29
}