; Function Attrs: mustprogress nofree nounwind memory(argmem: readwrite) uwtable
define noundef range(i32 0, 2) i32 @_Z10continuingPc(ptr noundef %0) local_unnamed_addr #0 {
  %2 = icmp eq ptr %0, null
  br i1 %2, label %_Z5rtrimPc.exit, label %3

3:                                                ; preds = %1
  %4 = tail call i64 @strlen(ptr noundef nonnull dereferenceable(1) %0) #24
  %5 = trunc i64 %4 to i32
  %.013.i = add i32 %5, -1
  %6 = icmp sgt i32 %.013.i, -1
  br i1 %6, label %.lr.ph.preheader.i, label %_Z5rtrimPc.exit

.lr.ph.preheader.i:                               ; preds = %3
  %7 = zext nneg i32 %.013.i to i64
  br label %.lr.ph.i

.lr.ph.i:                                         ; preds = %.critedge2.i, %.lr.ph.preheader.i
  %indvars.iv.i = phi i64 [ %7, %.lr.ph.preheader.i ], [ %indvars.iv.next.i, %.critedge2.i ]
  %8 = getelementptr inbounds nuw i8, ptr %0, i64 %indvars.iv.i
  %9 = load i8, ptr %8, align 1, !tbaa !4
  switch i8 %9, label %_Z5rtrimPc.exit [
    i8 32, label %.critedge2.i
    i8 9, label %.critedge2.i
  ]

.critedge2.i:                                     ; preds = %.lr.ph.i, %.lr.ph.i
  store i8 0, ptr %8, align 1, !tbaa !4
  %indvars.iv.next.i = add nsw i64 %indvars.iv.i, -1
  %10 = icmp sgt i64 %indvars.iv.i, 0
  br i1 %10, label %.lr.ph.i, label %_Z5rtrimPc.exit, !llvm.loop !7

_Z5rtrimPc.exit:                                  ; preds = %.lr.ph.i, %.critedge2.i, %1, %3
  %11 = tail call i64 @strlen(ptr noundef nonnull dereferenceable(1) %0) #24
  %12 = trunc i64 %11 to i32
  %13 = icmp sgt i32 %12, 0
  br i1 %13, label %14, label %21

14:                                               ; preds = %_Z5rtrimPc.exit
  %15 = add i64 %11, 4294967295
  %16 = and i64 %15, 4294967295
  %17 = getelementptr inbounds nuw i8, ptr %0, i64 %16
  %18 = load i8, ptr %17, align 1, !tbaa !4
  %19 = icmp eq i8 %18, 92
  br i1 %19, label %20, label %21

20:                                               ; preds = %14
  store i8 0, ptr %17, align 1, !tbaa !4
  br label %21

21:                                               ; preds = %_Z5rtrimPc.exit, %14, %20
  %.0 = phi i32 [ 1, %20 ], [ 0, %14 ], [ 0, %_Z5rtrimPc.exit ]
  ret i32 %.0
}